target datalayout = "e-m:e-p270:32:32-p271:32:32-p272:64:64-i64:64-i128:128-f80:128-n8:16:32:64-S128"
target triple = "x86_64-pc-linux-gnu"

; Function Attrs: nounwind uwtable
define internal i32 @cookie_verify(ptr noundef %0, ptr noundef %1, i32 noundef %2) #0 {
  %4 = alloca i32, align 4
  %5 = alloca ptr, align 8
  %6 = alloca ptr, align 8
  %7 = alloca i32, align 4
  %8 = alloca i32, align 4
  %9 = alloca i32, align 4
  store ptr %0, ptr %5, align 8, !tbaa !11
  store ptr %1, ptr %6, align 8, !tbaa !25
  store i32 %2, ptr %7, align 4, !tbaa !4
  call void @llvm.lifetime.start.p0(i64 4, ptr %8) #3
  %10 = load i32, ptr %7, align 4, !tbaa !4
  %11 = icmp ne i32 %10, 20
  br i1 %11, label %12, label %13

12:                                               ; preds = %3
  store i32 0, ptr %4, align 4
  store i32 1, ptr %9, align 4
  br label %31

13:                                               ; preds = %3
  store i32 0, ptr %8, align 4, !tbaa !4
  br label %14

14:                                               ; preds = %25, %13
  %15 = load i32, ptr %8, align 4, !tbaa !4
  %16 = icmp ult i32 %15, 20
  br i1 %16, label %17, label %30

17:                                               ; preds = %14
  %18 = load ptr, ptr %6, align 8, !tbaa !25
  %19 = load i8, ptr %18, align 1, !tbaa !28
  %20 = zext i8 %19 to i32
  %21 = load i32, ptr %8, align 4, !tbaa !4
  %22 = icmp ne i32 %20, %21
  br i1 %22, label %23, label %24

23:                                               ; preds = %17
  store i32 0, ptr %4, align 4
  store i32 1, ptr %9, align 4
  br label %31

24:                                               ; preds = %17
  br label %25

25:                                               ; preds = %24
  %26 = load i32, ptr %8, align 4, !tbaa !4
  %27 = add i32 %26, 1
  store i32 %27, ptr %8, align 4, !tbaa !4
  %28 = load ptr, ptr %6, align 8, !tbaa !25
  %29 = getelementptr inbounds nuw i8, ptr %28, i32 1
  store ptr %29, ptr %6, align 8, !tbaa !25
  br label %14, !llvm.loop !31

30:                                               ; preds = %14
  store i32 1, ptr %4, align 4
  store i32 1, ptr %9, align 4
  br label %31

31:                                               ; preds = %30, %23, %12
  call void @llvm.lifetime.end.p0(i64 4, ptr %8) #3
  %32 = load i32, ptr %4, align 4
  ret i32 %32
}