; Function Attrs: nofree norecurse nosync nounwind memory(argmem: read) uwtable
define internal range(i32 0, 2) i32 @cookie_verify(ptr readnone captures(none) %0, ptr noundef readonly captures(none) %1, i32 noundef %2) #4 {
  %.not = icmp eq i32 %2, 20
  br i1 %.not, label %.preheader, label %.loopexit

.preheader:                                       ; preds = %3, %6
  %.010 = phi i32 [ %7, %6 ], [ 0, %3 ]
  %.079 = phi ptr [ %8, %6 ], [ %1, %3 ]
  %4 = load i8, ptr %.079, align 1, !tbaa !14
  %5 = zext i8 %4 to i32
  %.not8 = icmp eq i32 %.010, %5
  br i1 %.not8, label %6, label %.loopexit

6:                                                ; preds = %.preheader
  %7 = add nuw nsw i32 %.010, 1
  %8 = getelementptr inbounds nuw i8, ptr %.079, i64 1
  %exitcond.not = icmp eq i32 %7, 20
  br i1 %exitcond.not, label %.loopexit, label %.preheader, !llvm.loop !18

.loopexit:                                        ; preds = %6, %.preheader, %3
  %.06 = phi i32 [ 0, %3 ], [ 1, %6 ], [ 0, %.preheader ]
  ret i32 %.06
}